target datalayout = "e-m:e-p270:32:32-p271:32:32-p272:64:64-i64:64-i128:128-f80:128-n8:16:32:64-S128"
target triple = "x86_64-pc-linux-gnu"

%struct._GList = type { ptr, ptr, ptr }
%struct.__va_list_tag = type { i32, i32, ptr, ptr }

@.str.87 = private unnamed_addr constant [3 x i8] c"%s\00", align 1
@.str.88 = private unnamed_addr constant [5 x i8] c"_yes\00", align 1
@.str.89 = private unnamed_addr constant [4 x i8] c"_no\00", align 1

; Function Attrs: nounwind uwtable
define i32 @dt_gui_show_yes_no_dialog(ptr noundef %0, ptr noundef %1, ...) #0 {
  %3 = alloca ptr, align 8
  %4 = alloca ptr, align 8
  %5 = alloca [1 x %struct.__va_list_tag], align 16
  %6 = alloca ptr, align 8
  %7 = alloca ptr, align 8
  %8 = alloca ptr, align 8
  %9 = alloca ptr, align 8
  %10 = alloca i32, align 4
  store ptr %0, ptr %3, align 8, !tbaa !11
  store ptr %1, ptr %4, align 8, !tbaa !11
  call void @llvm.lifetime.start.p0(i64 24, ptr %5) #15
  %11 = getelementptr inbounds [1 x %struct.__va_list_tag], ptr %5, i64 0, i64 0
  call void @llvm.va_start.p0(ptr %11)
  call void @llvm.lifetime.start.p0(i64 8, ptr %6) #15
  %12 = load ptr, ptr %4, align 8, !tbaa !11
  %13 = getelementptr inbounds [1 x %struct.__va_list_tag], ptr %5, i64 0, i64 0
  %14 = call noalias ptr @g_strdup_vprintf(ptr noundef %12, ptr noundef %13)
  store ptr %14, ptr %6, align 8, !tbaa !11
  %15 = getelementptr inbounds [1 x %struct.__va_list_tag], ptr %5, i64 0, i64 0
  call void @llvm.va_end.p0(ptr %15)
  call void @llvm.lifetime.start.p0(i64 8, ptr %7) #15
  store ptr null, ptr %7, align 8, !tbaa !237
  call void @llvm.lifetime.start.p0(i64 8, ptr %8) #15
  %16 = call ptr @gtk_window_list_toplevels()
  store ptr %16, ptr %8, align 8, !tbaa !138
  br label %17

17:                                               ; preds = %32, %2
  %18 = load ptr, ptr %8, align 8, !tbaa !138
  %19 = icmp ne ptr %18, null
  br i1 %19, label %21, label %20

20:                                               ; preds = %17
  call void @llvm.lifetime.end.p0(i64 8, ptr %8) #15
  br label %36

21:                                               ; preds = %17
  %22 = load ptr, ptr %8, align 8, !tbaa !138
  %23 = getelementptr inbounds nuw %struct._GList, ptr %22, i32 0, i32 0
  %24 = load ptr, ptr %23, align 8, !tbaa !139
  %25 = call i32 @gtk_window_is_active(ptr noundef %24)
  %26 = icmp ne i32 %25, 0
  br i1 %26, label %27, label %31

27:                                               ; preds = %21
  %28 = load ptr, ptr %8, align 8, !tbaa !138
  %29 = getelementptr inbounds nuw %struct._GList, ptr %28, i32 0, i32 0
  %30 = load ptr, ptr %29, align 8, !tbaa !139
  store ptr %30, ptr %7, align 8, !tbaa !237
  br label %31

31:                                               ; preds = %27, %21
  br label %32

32:                                               ; preds = %31
  %33 = load ptr, ptr %8, align 8, !tbaa !138
  %34 = load ptr, ptr %8, align 8, !tbaa !138
  %35 = call ptr @g_list_delete_link(ptr noundef %33, ptr noundef %34)
  store ptr %35, ptr %8, align 8, !tbaa !138
  br label %17

36:                                               ; preds = %20
  call void @llvm.lifetime.start.p0(i64 8, ptr %9) #15
  %37 = load ptr, ptr %7, align 8, !tbaa !237
  %38 = load ptr, ptr %6, align 8, !tbaa !11
  %39 = call ptr (ptr, i32, i32, i32, ptr, ...) @gtk_message_dialog_new(ptr noundef %37, i32 noundef 2, i32 noundef 2, i32 noundef 0, ptr noundef @.str.87, ptr noundef %38)
  store ptr %39, ptr %9, align 8, !tbaa !6
  %40 = load ptr, ptr %9, align 8, !tbaa !6
  %41 = call i64 @gtk_dialog_get_type() #16
  %42 = call ptr @g_type_check_instance_cast(ptr noundef %40, i64 noundef %41)
  %43 = call ptr @dcgettext(ptr noundef null, ptr noundef @.str.88, i32 noundef 5) #15
  %44 = call ptr @dcgettext(ptr noundef null, ptr noundef @.str.89, i32 noundef 5) #15
  call void (ptr, ptr, ...) @gtk_dialog_add_buttons(ptr noundef %42, ptr noundef %43, i32 noundef -8, ptr noundef %44, i32 noundef -9, ptr noundef null)
  %45 = load ptr, ptr %9, align 8, !tbaa !6
  %46 = call i64 @gtk_dialog_get_type() #16
  %47 = call ptr @g_type_check_instance_cast(ptr noundef %45, i64 noundef %46)
  call void @gtk_dialog_set_default_response(ptr noundef %47, i32 noundef -9)
  %48 = load ptr, ptr %9, align 8, !tbaa !6
  %49 = call i64 @gtk_window_get_type() #16
  %50 = call ptr @g_type_check_instance_cast(ptr noundef %48, i64 noundef %49)
  %51 = load ptr, ptr %3, align 8, !tbaa !11
  call void @gtk_window_set_title(ptr noundef %50, ptr noundef %51)
  call void @llvm.lifetime.start.p0(i64 4, ptr %10) #15
  %52 = load ptr, ptr %9, align 8, !tbaa !6
  %53 = call i64 @gtk_dialog_get_type() #16
  %54 = call ptr @g_type_check_instance_cast(ptr noundef %52, i64 noundef %53)
  %55 = call i32 @gtk_dialog_run(ptr noundef %54)
  store i32 %55, ptr %10, align 4, !tbaa !17
  %56 = load ptr, ptr %9, align 8, !tbaa !6
  call void @gtk_widget_destroy(ptr noundef %56)
  %57 = load ptr, ptr %6, align 8, !tbaa !11
  call void @g_free(ptr noundef %57)
  %58 = load i32, ptr %10, align 4, !tbaa !17
  %59 = icmp eq i32 %58, -8
  %60 = zext i1 %59 to i32
  call void @llvm.lifetime.end.p0(i64 4, ptr %10) #15
  call void @llvm.lifetime.end.p0(i64 8, ptr %9) #15
  call void @llvm.lifetime.end.p0(i64 8, ptr %7) #15
  call void @llvm.lifetime.end.p0(i64 8, ptr %6) #15
  call void @llvm.lifetime.end.p0(i64 24, ptr %5) #15
  ret i32 %60
}