; Function Attrs: nounwind uwtable
define range(i32 0, 2) i32 @dt_gui_show_yes_no_dialog(ptr noundef %0, ptr noundef %1, ...) local_unnamed_addr #0 {
  %3 = alloca [1 x %struct.__va_list_tag], align 16
  call void @llvm.lifetime.start.p0(i64 24, ptr nonnull %3) #18
  call void @llvm.va_start.p0(ptr nonnull %3)
  %4 = call noalias ptr @g_strdup_vprintf(ptr noundef %1, ptr noundef nonnull %3) #18
  call void @llvm.va_end.p0(ptr nonnull %3)
  %5 = call ptr @gtk_window_list_toplevels() #18
  %.not17 = icmp eq ptr %5, null
  br i1 %.not17, label %._crit_edge, label %.lr.ph

._crit_edge:                                      ; preds = %22, %2
  %.0.lcssa = phi ptr [ null, %2 ], [ %.1, %22 ]
  %6 = call ptr (ptr, i32, i32, i32, ptr, ...) @gtk_message_dialog_new(ptr noundef %.0.lcssa, i32 noundef 2, i32 noundef 2, i32 noundef 0, ptr noundef nonnull @.str.87, ptr noundef %4) #18
  %7 = tail call i64 @gtk_dialog_get_type() #19
  %8 = call ptr @g_type_check_instance_cast(ptr noundef %6, i64 noundef %7) #18
  %9 = call ptr @dcgettext(ptr noundef null, ptr noundef nonnull @.str.88, i32 noundef 5) #18
  %10 = call ptr @dcgettext(ptr noundef null, ptr noundef nonnull @.str.89, i32 noundef 5) #18
  call void (ptr, ptr, ...) @gtk_dialog_add_buttons(ptr noundef %8, ptr noundef %9, i32 noundef -8, ptr noundef %10, i32 noundef -9, ptr noundef null) #18
  %11 = call ptr @g_type_check_instance_cast(ptr noundef %6, i64 noundef %7) #18
  call void @gtk_dialog_set_default_response(ptr noundef %11, i32 noundef -9) #18
  %12 = tail call i64 @gtk_window_get_type() #19
  %13 = call ptr @g_type_check_instance_cast(ptr noundef %6, i64 noundef %12) #18
  call void @gtk_window_set_title(ptr noundef %13, ptr noundef %0) #18
  %14 = call ptr @g_type_check_instance_cast(ptr noundef %6, i64 noundef %7) #18
  %15 = call i32 @gtk_dialog_run(ptr noundef %14) #18
  call void @gtk_widget_destroy(ptr noundef %6) #18
  call void @g_free(ptr noundef %4) #18
  %16 = icmp eq i32 %15, -8
  %17 = zext i1 %16 to i32
  call void @llvm.lifetime.end.p0(i64 24, ptr nonnull %3) #18
  ret i32 %17

.lr.ph:                                           ; preds = %2, %22
  %.019 = phi ptr [ %.1, %22 ], [ null, %2 ]
  %.01518 = phi ptr [ %23, %22 ], [ %5, %2 ]
  %18 = load ptr, ptr %.01518, align 8, !tbaa !129
  %19 = call i32 @gtk_window_is_active(ptr noundef %18) #18
  %.not16 = icmp eq i32 %19, 0
  br i1 %.not16, label %22, label %20

20:                                               ; preds = %.lr.ph
  %21 = load ptr, ptr %.01518, align 8, !tbaa !129
  br label %22

22:                                               ; preds = %.lr.ph, %20
  %.1 = phi ptr [ %21, %20 ], [ %.019, %.lr.ph ]
  %23 = call ptr @g_list_delete_link(ptr noundef nonnull %.01518, ptr noundef nonnull %.01518) #18
  %.not = icmp eq ptr %23, null
  br i1 %.not, label %._crit_edge, label %.lr.ph
}